target datalayout = "e-m:e-p270:32:32-p271:32:32-p272:64:64-i64:64-i128:128-f80:128-n8:16:32:64-S128"
target triple = "x86_64-pc-linux-gnu"

; Function Attrs: inlinehint nounwind uwtable
define internal i32 @mstrGetFlag(ptr noundef %0, i32 noundef %1) #7 {
  %3 = alloca ptr, align 8
  %4 = alloca i32, align 4
  store ptr %0, ptr %3, align 8, !tbaa !33
  store i32 %1, ptr %4, align 4, !tbaa !13
  %5 = load ptr, ptr %3, align 8, !tbaa !33
  %6 = call ptr @mstrFlagsRef(ptr noundef %5)
  %7 = load i16, ptr %6, align 2, !tbaa !96
  %8 = zext i16 %7 to i32
  %9 = load i32, ptr %4, align 4, !tbaa !13
  %10 = shl i32 1, %9
  %11 = and i32 %8, %10
  ret i32 %11
}

; Function Attrs: inlinehint nounwind uwtable
define internal i32 @mstrIsMetaAttached(ptr noundef %0) #7 {
  %2 = alloca ptr, align 8
  store ptr %0, ptr %2, align 8, !tbaa !33
  %3 = load ptr, ptr %2, align 8, !tbaa !33
  %4 = getelementptr inbounds i8, ptr %3, i64 -1
  %5 = load i8, ptr %4, align 1, !tbaa !95
  %6 = sext i8 %5 to i32
  %7 = and i32 %6, 4
  ret i32 %7
}

; Function Attrs: nounwind uwtable
define dso_local i32 @hfieldIsExpireAttached(ptr noundef %0) #1 {
  %2 = alloca ptr, align 8
  store ptr %0, ptr %2, align 8, !tbaa !33
  %3 = load ptr, ptr %2, align 8, !tbaa !33
  %4 = call i32 @mstrIsMetaAttached(ptr noundef %3)
  %5 = icmp ne i32 %4, 0
  br i1 %5, label %6, label %10

6:                                                ; preds = %1
  %7 = load ptr, ptr %2, align 8, !tbaa !33
  %8 = call i32 @mstrGetFlag(ptr noundef %7, i32 noundef 0)
  %9 = icmp ne i32 %8, 0
  br label %10

10:                                               ; preds = %6, %1
  %11 = phi i1 [ false, %1 ], [ %9, %6 ]
  %12 = zext i1 %11 to i32
  ret i32 %12
}