; Function Attrs: nounwind uwtable
define dso_local range(i32 0, 2) i32 @hfieldIsExpireAttached(ptr noundef %0) local_unnamed_addr #1 {
  %2 = getelementptr i8, ptr %0, i64 -1
  %.val = load i8, ptr %2, align 1, !tbaa !5
  %3 = and i8 %.val, 4
  %.not = icmp eq i8 %3, 0
  br i1 %.not, label %9, label %4

4:                                                ; preds = %1
  %5 = tail call ptr @mstrFlagsRef(ptr noundef nonnull %0) #16
  %6 = load i16, ptr %5, align 2, !tbaa !8
  %7 = and i16 %6, 1
  %8 = zext nneg i16 %7 to i32
  br label %9

9:                                                ; preds = %4, %1
  %10 = phi i32 [ 0, %1 ], [ %8, %4 ]
  ret i32 %10
}